; Function Attrs: mustprogress uwtable
define void @ucol_setMaxVariable_75(ptr noundef %coll, i32 noundef %group, ptr noundef %pErrorCode) local_unnamed_addr #0 {
entry:
  %0 = load i32, ptr %pErrorCode, align 4
  %cmp.i = icmp slt i32 %0, 1
  br i1 %cmp.i, label %if.end, label %return

if.end:                                           ; preds = %entry
  %vtable = load ptr, ptr %coll, align 8
  %vfn = getelementptr inbounds i8, ptr %vtable, i64 200
  %1 = load ptr, ptr %vfn, align 8
  %call2 = tail call noundef nonnull align 8 dereferenceable(8) ptr %1(ptr noundef nonnull align 8 dereferenceable(8) %coll, i32 noundef %group, ptr noundef nonnull align 4 dereferenceable(4) %pErrorCode)
  br label %return

return:                                           ; preds = %entry, %if.end
  ret void
}